; Function Attrs: mustprogress nofree norecurse nosync nounwind willreturn memory(read, inaccessiblemem: none) uwtable
define noundef double @_ZN9benchmark14StatisticsMeanERKSt6vectorIdSaIdEE(ptr noundef nonnull readonly align 8 captures(none) dereferenceable(24) %0) local_unnamed_addr #3 {
  %2 = load ptr, ptr %0, align 8, !tbaa !3
  %3 = getelementptr inbounds nuw i8, ptr %0, i64 8
  %4 = load ptr, ptr %3, align 8, !tbaa !3
  %5 = icmp eq ptr %2, %4
  br i1 %5, label %16, label %.lr.ph.i.i

.lr.ph.i.i:                                       ; preds = %1, %.lr.ph.i.i
  %.07.i.i = phi double [ %7, %.lr.ph.i.i ], [ 0.000000e+00, %1 ]
  %.sroa.02.06.i.i = phi ptr [ %8, %.lr.ph.i.i ], [ %2, %1 ]
  %6 = load double, ptr %.sroa.02.06.i.i, align 8, !tbaa !8
  %7 = fadd double %.07.i.i, %6
  %8 = getelementptr inbounds nuw i8, ptr %.sroa.02.06.i.i, i64 8
  %.not.i.i = icmp eq ptr %8, %4
  br i1 %.not.i.i, label %"_ZNK9benchmark3$_0clERKSt6vectorIdSaIdEE.exit", label %.lr.ph.i.i, !llvm.loop !10

"_ZNK9benchmark3$_0clERKSt6vectorIdSaIdEE.exit":  ; preds = %.lr.ph.i.i
  %9 = ptrtoint ptr %4 to i64
  %10 = ptrtoint ptr %2 to i64
  %11 = sub i64 %9, %10
  %12 = ashr exact i64 %11, 3
  %13 = uitofp i64 %12 to double
  %14 = fdiv double 1.000000e+00, %13
  %15 = fmul double %14, %7
  br label %16

16:                                               ; preds = %1, %"_ZNK9benchmark3$_0clERKSt6vectorIdSaIdEE.exit"
  %.0 = phi double [ %15, %"_ZNK9benchmark3$_0clERKSt6vectorIdSaIdEE.exit" ], [ 0.000000e+00, %1 ]
  ret double %.0
}